target datalayout = "e-m:e-p270:32:32-p271:32:32-p272:64:64-i64:64-i128:128-f80:128-n8:16:32:64-S128"
target triple = "x86_64-pc-linux-gnu"

; Function Attrs: nounwind uwtable
define internal void @fe_tobytes(ptr noundef %0, ptr noundef %1) #0 {
  %3 = alloca ptr, align 8
  %4 = alloca ptr, align 8
  %5 = alloca i32, align 4
  %6 = alloca i32, align 4
  %7 = alloca i32, align 4
  %8 = alloca i32, align 4
  %9 = alloca i32, align 4
  %10 = alloca i32, align 4
  %11 = alloca i32, align 4
  %12 = alloca i32, align 4
  %13 = alloca i32, align 4
  %14 = alloca i32, align 4
  %15 = alloca i32, align 4
  store ptr %0, ptr %3, align 8, !tbaa !6
  store ptr %1, ptr %4, align 8, !tbaa !13
  call void @llvm.lifetime.start.p0(i64 4, ptr %5) #5
  %16 = load ptr, ptr %4, align 8, !tbaa !13
  %17 = getelementptr inbounds i32, ptr %16, i64 0
  %18 = load i32, ptr %17, align 4, !tbaa !15
  store i32 %18, ptr %5, align 4, !tbaa !15
  call void @llvm.lifetime.start.p0(i64 4, ptr %6) #5
  %19 = load ptr, ptr %4, align 8, !tbaa !13
  %20 = getelementptr inbounds i32, ptr %19, i64 1
  %21 = load i32, ptr %20, align 4, !tbaa !15
  store i32 %21, ptr %6, align 4, !tbaa !15
  call void @llvm.lifetime.start.p0(i64 4, ptr %7) #5
  %22 = load ptr, ptr %4, align 8, !tbaa !13
  %23 = getelementptr inbounds i32, ptr %22, i64 2
  %24 = load i32, ptr %23, align 4, !tbaa !15
  store i32 %24, ptr %7, align 4, !tbaa !15
  call void @llvm.lifetime.start.p0(i64 4, ptr %8) #5
  %25 = load ptr, ptr %4, align 8, !tbaa !13
  %26 = getelementptr inbounds i32, ptr %25, i64 3
  %27 = load i32, ptr %26, align 4, !tbaa !15
  store i32 %27, ptr %8, align 4, !tbaa !15
  call void @llvm.lifetime.start.p0(i64 4, ptr %9) #5
  %28 = load ptr, ptr %4, align 8, !tbaa !13
  %29 = getelementptr inbounds i32, ptr %28, i64 4
  %30 = load i32, ptr %29, align 4, !tbaa !15
  store i32 %30, ptr %9, align 4, !tbaa !15
  call void @llvm.lifetime.start.p0(i64 4, ptr %10) #5
  %31 = load ptr, ptr %4, align 8, !tbaa !13
  %32 = getelementptr inbounds i32, ptr %31, i64 5
  %33 = load i32, ptr %32, align 4, !tbaa !15
  store i32 %33, ptr %10, align 4, !tbaa !15
  call void @llvm.lifetime.start.p0(i64 4, ptr %11) #5
  %34 = load ptr, ptr %4, align 8, !tbaa !13
  %35 = getelementptr inbounds i32, ptr %34, i64 6
  %36 = load i32, ptr %35, align 4, !tbaa !15
  store i32 %36, ptr %11, align 4, !tbaa !15
  call void @llvm.lifetime.start.p0(i64 4, ptr %12) #5
  %37 = load ptr, ptr %4, align 8, !tbaa !13
  %38 = getelementptr inbounds i32, ptr %37, i64 7
  %39 = load i32, ptr %38, align 4, !tbaa !15
  store i32 %39, ptr %12, align 4, !tbaa !15
  call void @llvm.lifetime.start.p0(i64 4, ptr %13) #5
  %40 = load ptr, ptr %4, align 8, !tbaa !13
  %41 = getelementptr inbounds i32, ptr %40, i64 8
  %42 = load i32, ptr %41, align 4, !tbaa !15
  store i32 %42, ptr %13, align 4, !tbaa !15
  call void @llvm.lifetime.start.p0(i64 4, ptr %14) #5
  %43 = load ptr, ptr %4, align 8, !tbaa !13
  %44 = getelementptr inbounds i32, ptr %43, i64 9
  %45 = load i32, ptr %44, align 4, !tbaa !15
  store i32 %45, ptr %14, align 4, !tbaa !15
  call void @llvm.lifetime.start.p0(i64 4, ptr %15) #5
  %46 = load i32, ptr %14, align 4, !tbaa !15
  %47 = mul nsw i32 19, %46
  %48 = add nsw i32 %47, 16777216
  %49 = ashr i32 %48, 25
  store i32 %49, ptr %15, align 4, !tbaa !15
  %50 = load i32, ptr %5, align 4, !tbaa !15
  %51 = load i32, ptr %15, align 4, !tbaa !15
  %52 = add nsw i32 %50, %51
  %53 = ashr i32 %52, 26
  store i32 %53, ptr %15, align 4, !tbaa !15
  %54 = load i32, ptr %6, align 4, !tbaa !15
  %55 = load i32, ptr %15, align 4, !tbaa !15
  %56 = add nsw i32 %54, %55
  %57 = ashr i32 %56, 25
  store i32 %57, ptr %15, align 4, !tbaa !15
  %58 = load i32, ptr %7, align 4, !tbaa !15
  %59 = load i32, ptr %15, align 4, !tbaa !15
  %60 = add nsw i32 %58, %59
  %61 = ashr i32 %60, 26
  store i32 %61, ptr %15, align 4, !tbaa !15
  %62 = load i32, ptr %8, align 4, !tbaa !15
  %63 = load i32, ptr %15, align 4, !tbaa !15
  %64 = add nsw i32 %62, %63
  %65 = ashr i32 %64, 25
  store i32 %65, ptr %15, align 4, !tbaa !15
  %66 = load i32, ptr %9, align 4, !tbaa !15
  %67 = load i32, ptr %15, align 4, !tbaa !15
  %68 = add nsw i32 %66, %67
  %69 = ashr i32 %68, 26
  store i32 %69, ptr %15, align 4, !tbaa !15
  %70 = load i32, ptr %10, align 4, !tbaa !15
  %71 = load i32, ptr %15, align 4, !tbaa !15
  %72 = add nsw i32 %70, %71
  %73 = ashr i32 %72, 25
  store i32 %73, ptr %15, align 4, !tbaa !15
  %74 = load i32, ptr %11, align 4, !tbaa !15
  %75 = load i32, ptr %15, align 4, !tbaa !15
  %76 = add nsw i32 %74, %75
  %77 = ashr i32 %76, 26
  store i32 %77, ptr %15, align 4, !tbaa !15
  %78 = load i32, ptr %12, align 4, !tbaa !15
  %79 = load i32, ptr %15, align 4, !tbaa !15
  %80 = add nsw i32 %78, %79
  %81 = ashr i32 %80, 25
  store i32 %81, ptr %15, align 4, !tbaa !15
  %82 = load i32, ptr %13, align 4, !tbaa !15
  %83 = load i32, ptr %15, align 4, !tbaa !15
  %84 = add nsw i32 %82, %83
  %85 = ashr i32 %84, 26
  store i32 %85, ptr %15, align 4, !tbaa !15
  %86 = load i32, ptr %14, align 4, !tbaa !15
  %87 = load i32, ptr %15, align 4, !tbaa !15
  %88 = add nsw i32 %86, %87
  %89 = ashr i32 %88, 25
  store i32 %89, ptr %15, align 4, !tbaa !15
  %90 = load i32, ptr %15, align 4, !tbaa !15
  %91 = mul nsw i32 19, %90
  %92 = load i32, ptr %5, align 4, !tbaa !15
  %93 = add nsw i32 %92, %91
  store i32 %93, ptr %5, align 4, !tbaa !15
  %94 = load i32, ptr %5, align 4, !tbaa !15
  %95 = ashr i32 %94, 26
  %96 = load i32, ptr %6, align 4, !tbaa !15
  %97 = add nsw i32 %96, %95
  store i32 %97, ptr %6, align 4, !tbaa !15
  %98 = load i32, ptr %5, align 4, !tbaa !15
  %99 = sext i32 %98 to i64
  %100 = and i64 %99, 67108863
  %101 = trunc i64 %100 to i32
  store i32 %101, ptr %5, align 4, !tbaa !15
  %102 = load i32, ptr %6, align 4, !tbaa !15
  %103 = ashr i32 %102, 25
  %104 = load i32, ptr %7, align 4, !tbaa !15
  %105 = add nsw i32 %104, %103
  store i32 %105, ptr %7, align 4, !tbaa !15
  %106 = load i32, ptr %6, align 4, !tbaa !15
  %107 = sext i32 %106 to i64
  %108 = and i64 %107, 33554431
  %109 = trunc i64 %108 to i32
  store i32 %109, ptr %6, align 4, !tbaa !15
  %110 = load i32, ptr %7, align 4, !tbaa !15
  %111 = ashr i32 %110, 26
  %112 = load i32, ptr %8, align 4, !tbaa !15
  %113 = add nsw i32 %112, %111
  store i32 %113, ptr %8, align 4, !tbaa !15
  %114 = load i32, ptr %7, align 4, !tbaa !15
  %115 = sext i32 %114 to i64
  %116 = and i64 %115, 67108863
  %117 = trunc i64 %116 to i32
  store i32 %117, ptr %7, align 4, !tbaa !15
  %118 = load i32, ptr %8, align 4, !tbaa !15
  %119 = ashr i32 %118, 25
  %120 = load i32, ptr %9, align 4, !tbaa !15
  %121 = add nsw i32 %120, %119
  store i32 %121, ptr %9, align 4, !tbaa !15
  %122 = load i32, ptr %8, align 4, !tbaa !15
  %123 = sext i32 %122 to i64
  %124 = and i64 %123, 33554431
  %125 = trunc i64 %124 to i32
  store i32 %125, ptr %8, align 4, !tbaa !15
  %126 = load i32, ptr %9, align 4, !tbaa !15
  %127 = ashr i32 %126, 26
  %128 = load i32, ptr %10, align 4, !tbaa !15
  %129 = add nsw i32 %128, %127
  store i32 %129, ptr %10, align 4, !tbaa !15
  %130 = load i32, ptr %9, align 4, !tbaa !15
  %131 = sext i32 %130 to i64
  %132 = and i64 %131, 67108863
  %133 = trunc i64 %132 to i32
  store i32 %133, ptr %9, align 4, !tbaa !15
  %134 = load i32, ptr %10, align 4, !tbaa !15
  %135 = ashr i32 %134, 25
  %136 = load i32, ptr %11, align 4, !tbaa !15
  %137 = add nsw i32 %136, %135
  store i32 %137, ptr %11, align 4, !tbaa !15
  %138 = load i32, ptr %10, align 4, !tbaa !15
  %139 = sext i32 %138 to i64
  %140 = and i64 %139, 33554431
  %141 = trunc i64 %140 to i32
  store i32 %141, ptr %10, align 4, !tbaa !15
  %142 = load i32, ptr %11, align 4, !tbaa !15
  %143 = ashr i32 %142, 26
  %144 = load i32, ptr %12, align 4, !tbaa !15
  %145 = add nsw i32 %144, %143
  store i32 %145, ptr %12, align 4, !tbaa !15
  %146 = load i32, ptr %11, align 4, !tbaa !15
  %147 = sext i32 %146 to i64
  %148 = and i64 %147, 67108863
  %149 = trunc i64 %148 to i32
  store i32 %149, ptr %11, align 4, !tbaa !15
  %150 = load i32, ptr %12, align 4, !tbaa !15
  %151 = ashr i32 %150, 25
  %152 = load i32, ptr %13, align 4, !tbaa !15
  %153 = add nsw i32 %152, %151
  store i32 %153, ptr %13, align 4, !tbaa !15
  %154 = load i32, ptr %12, align 4, !tbaa !15
  %155 = sext i32 %154 to i64
  %156 = and i64 %155, 33554431
  %157 = trunc i64 %156 to i32
  store i32 %157, ptr %12, align 4, !tbaa !15
  %158 = load i32, ptr %13, align 4, !tbaa !15
  %159 = ashr i32 %158, 26
  %160 = load i32, ptr %14, align 4, !tbaa !15
  %161 = add nsw i32 %160, %159
  store i32 %161, ptr %14, align 4, !tbaa !15
  %162 = load i32, ptr %13, align 4, !tbaa !15
  %163 = sext i32 %162 to i64
  %164 = and i64 %163, 67108863
  %165 = trunc i64 %164 to i32
  store i32 %165, ptr %13, align 4, !tbaa !15
  %166 = load i32, ptr %14, align 4, !tbaa !15
  %167 = sext i32 %166 to i64
  %168 = and i64 %167, 33554431
  %169 = trunc i64 %168 to i32
  store i32 %169, ptr %14, align 4, !tbaa !15
  %170 = load i32, ptr %5, align 4, !tbaa !15
  %171 = ashr i32 %170, 0
  %172 = trunc i32 %171 to i8
  %173 = load ptr, ptr %3, align 8, !tbaa !6
  %174 = getelementptr inbounds i8, ptr %173, i64 0
  store i8 %172, ptr %174, align 1, !tbaa !12
  %175 = load i32, ptr %5, align 4, !tbaa !15
  %176 = ashr i32 %175, 8
  %177 = trunc i32 %176 to i8
  %178 = load ptr, ptr %3, align 8, !tbaa !6
  %179 = getelementptr inbounds i8, ptr %178, i64 1
  store i8 %177, ptr %179, align 1, !tbaa !12
  %180 = load i32, ptr %5, align 4, !tbaa !15
  %181 = ashr i32 %180, 16
  %182 = trunc i32 %181 to i8
  %183 = load ptr, ptr %3, align 8, !tbaa !6
  %184 = getelementptr inbounds i8, ptr %183, i64 2
  store i8 %182, ptr %184, align 1, !tbaa !12
  %185 = load i32, ptr %5, align 4, !tbaa !15
  %186 = ashr i32 %185, 24
  %187 = load i32, ptr %6, align 4, !tbaa !15
  %188 = shl i32 %187, 2
  %189 = or i32 %186, %188
  %190 = trunc i32 %189 to i8
  %191 = load ptr, ptr %3, align 8, !tbaa !6
  %192 = getelementptr inbounds i8, ptr %191, i64 3
  store i8 %190, ptr %192, align 1, !tbaa !12
  %193 = load i32, ptr %6, align 4, !tbaa !15
  %194 = ashr i32 %193, 6
  %195 = trunc i32 %194 to i8
  %196 = load ptr, ptr %3, align 8, !tbaa !6
  %197 = getelementptr inbounds i8, ptr %196, i64 4
  store i8 %195, ptr %197, align 1, !tbaa !12
  %198 = load i32, ptr %6, align 4, !tbaa !15
  %199 = ashr i32 %198, 14
  %200 = trunc i32 %199 to i8
  %201 = load ptr, ptr %3, align 8, !tbaa !6
  %202 = getelementptr inbounds i8, ptr %201, i64 5
  store i8 %200, ptr %202, align 1, !tbaa !12
  %203 = load i32, ptr %6, align 4, !tbaa !15
  %204 = ashr i32 %203, 22
  %205 = load i32, ptr %7, align 4, !tbaa !15
  %206 = shl i32 %205, 3
  %207 = or i32 %204, %206
  %208 = trunc i32 %207 to i8
  %209 = load ptr, ptr %3, align 8, !tbaa !6
  %210 = getelementptr inbounds i8, ptr %209, i64 6
  store i8 %208, ptr %210, align 1, !tbaa !12
  %211 = load i32, ptr %7, align 4, !tbaa !15
  %212 = ashr i32 %211, 5
  %213 = trunc i32 %212 to i8
  %214 = load ptr, ptr %3, align 8, !tbaa !6
  %215 = getelementptr inbounds i8, ptr %214, i64 7
  store i8 %213, ptr %215, align 1, !tbaa !12
  %216 = load i32, ptr %7, align 4, !tbaa !15
  %217 = ashr i32 %216, 13
  %218 = trunc i32 %217 to i8
  %219 = load ptr, ptr %3, align 8, !tbaa !6
  %220 = getelementptr inbounds i8, ptr %219, i64 8
  store i8 %218, ptr %220, align 1, !tbaa !12
  %221 = load i32, ptr %7, align 4, !tbaa !15
  %222 = ashr i32 %221, 21
  %223 = load i32, ptr %8, align 4, !tbaa !15
  %224 = shl i32 %223, 5
  %225 = or i32 %222, %224
  %226 = trunc i32 %225 to i8
  %227 = load ptr, ptr %3, align 8, !tbaa !6
  %228 = getelementptr inbounds i8, ptr %227, i64 9
  store i8 %226, ptr %228, align 1, !tbaa !12
  %229 = load i32, ptr %8, align 4, !tbaa !15
  %230 = ashr i32 %229, 3
  %231 = trunc i32 %230 to i8
  %232 = load ptr, ptr %3, align 8, !tbaa !6
  %233 = getelementptr inbounds i8, ptr %232, i64 10
  store i8 %231, ptr %233, align 1, !tbaa !12
  %234 = load i32, ptr %8, align 4, !tbaa !15
  %235 = ashr i32 %234, 11
  %236 = trunc i32 %235 to i8
  %237 = load ptr, ptr %3, align 8, !tbaa !6
  %238 = getelementptr inbounds i8, ptr %237, i64 11
  store i8 %236, ptr %238, align 1, !tbaa !12
  %239 = load i32, ptr %8, align 4, !tbaa !15
  %240 = ashr i32 %239, 19
  %241 = load i32, ptr %9, align 4, !tbaa !15
  %242 = shl i32 %241, 6
  %243 = or i32 %240, %242
  %244 = trunc i32 %243 to i8
  %245 = load ptr, ptr %3, align 8, !tbaa !6
  %246 = getelementptr inbounds i8, ptr %245, i64 12
  store i8 %244, ptr %246, align 1, !tbaa !12
  %247 = load i32, ptr %9, align 4, !tbaa !15
  %248 = ashr i32 %247, 2
  %249 = trunc i32 %248 to i8
  %250 = load ptr, ptr %3, align 8, !tbaa !6
  %251 = getelementptr inbounds i8, ptr %250, i64 13
  store i8 %249, ptr %251, align 1, !tbaa !12
  %252 = load i32, ptr %9, align 4, !tbaa !15
  %253 = ashr i32 %252, 10
  %254 = trunc i32 %253 to i8
  %255 = load ptr, ptr %3, align 8, !tbaa !6
  %256 = getelementptr inbounds i8, ptr %255, i64 14
  store i8 %254, ptr %256, align 1, !tbaa !12
  %257 = load i32, ptr %9, align 4, !tbaa !15
  %258 = ashr i32 %257, 18
  %259 = trunc i32 %258 to i8
  %260 = load ptr, ptr %3, align 8, !tbaa !6
  %261 = getelementptr inbounds i8, ptr %260, i64 15
  store i8 %259, ptr %261, align 1, !tbaa !12
  %262 = load i32, ptr %10, align 4, !tbaa !15
  %263 = ashr i32 %262, 0
  %264 = trunc i32 %263 to i8
  %265 = load ptr, ptr %3, align 8, !tbaa !6
  %266 = getelementptr inbounds i8, ptr %265, i64 16
  store i8 %264, ptr %266, align 1, !tbaa !12
  %267 = load i32, ptr %10, align 4, !tbaa !15
  %268 = ashr i32 %267, 8
  %269 = trunc i32 %268 to i8
  %270 = load ptr, ptr %3, align 8, !tbaa !6
  %271 = getelementptr inbounds i8, ptr %270, i64 17
  store i8 %269, ptr %271, align 1, !tbaa !12
  %272 = load i32, ptr %10, align 4, !tbaa !15
  %273 = ashr i32 %272, 16
  %274 = trunc i32 %273 to i8
  %275 = load ptr, ptr %3, align 8, !tbaa !6
  %276 = getelementptr inbounds i8, ptr %275, i64 18
  store i8 %274, ptr %276, align 1, !tbaa !12
  %277 = load i32, ptr %10, align 4, !tbaa !15
  %278 = ashr i32 %277, 24
  %279 = load i32, ptr %11, align 4, !tbaa !15
  %280 = shl i32 %279, 1
  %281 = or i32 %278, %280
  %282 = trunc i32 %281 to i8
  %283 = load ptr, ptr %3, align 8, !tbaa !6
  %284 = getelementptr inbounds i8, ptr %283, i64 19
  store i8 %282, ptr %284, align 1, !tbaa !12
  %285 = load i32, ptr %11, align 4, !tbaa !15
  %286 = ashr i32 %285, 7
  %287 = trunc i32 %286 to i8
  %288 = load ptr, ptr %3, align 8, !tbaa !6
  %289 = getelementptr inbounds i8, ptr %288, i64 20
  store i8 %287, ptr %289, align 1, !tbaa !12
  %290 = load i32, ptr %11, align 4, !tbaa !15
  %291 = ashr i32 %290, 15
  %292 = trunc i32 %291 to i8
  %293 = load ptr, ptr %3, align 8, !tbaa !6
  %294 = getelementptr inbounds i8, ptr %293, i64 21
  store i8 %292, ptr %294, align 1, !tbaa !12
  %295 = load i32, ptr %11, align 4, !tbaa !15
  %296 = ashr i32 %295, 23
  %297 = load i32, ptr %12, align 4, !tbaa !15
  %298 = shl i32 %297, 3
  %299 = or i32 %296, %298
  %300 = trunc i32 %299 to i8
  %301 = load ptr, ptr %3, align 8, !tbaa !6
  %302 = getelementptr inbounds i8, ptr %301, i64 22
  store i8 %300, ptr %302, align 1, !tbaa !12
  %303 = load i32, ptr %12, align 4, !tbaa !15
  %304 = ashr i32 %303, 5
  %305 = trunc i32 %304 to i8
  %306 = load ptr, ptr %3, align 8, !tbaa !6
  %307 = getelementptr inbounds i8, ptr %306, i64 23
  store i8 %305, ptr %307, align 1, !tbaa !12
  %308 = load i32, ptr %12, align 4, !tbaa !15
  %309 = ashr i32 %308, 13
  %310 = trunc i32 %309 to i8
  %311 = load ptr, ptr %3, align 8, !tbaa !6
  %312 = getelementptr inbounds i8, ptr %311, i64 24
  store i8 %310, ptr %312, align 1, !tbaa !12
  %313 = load i32, ptr %12, align 4, !tbaa !15
  %314 = ashr i32 %313, 21
  %315 = load i32, ptr %13, align 4, !tbaa !15
  %316 = shl i32 %315, 4
  %317 = or i32 %314, %316
  %318 = trunc i32 %317 to i8
  %319 = load ptr, ptr %3, align 8, !tbaa !6
  %320 = getelementptr inbounds i8, ptr %319, i64 25
  store i8 %318, ptr %320, align 1, !tbaa !12
  %321 = load i32, ptr %13, align 4, !tbaa !15
  %322 = ashr i32 %321, 4
  %323 = trunc i32 %322 to i8
  %324 = load ptr, ptr %3, align 8, !tbaa !6
  %325 = getelementptr inbounds i8, ptr %324, i64 26
  store i8 %323, ptr %325, align 1, !tbaa !12
  %326 = load i32, ptr %13, align 4, !tbaa !15
  %327 = ashr i32 %326, 12
  %328 = trunc i32 %327 to i8
  %329 = load ptr, ptr %3, align 8, !tbaa !6
  %330 = getelementptr inbounds i8, ptr %329, i64 27
  store i8 %328, ptr %330, align 1, !tbaa !12
  %331 = load i32, ptr %13, align 4, !tbaa !15
  %332 = ashr i32 %331, 20
  %333 = load i32, ptr %14, align 4, !tbaa !15
  %334 = shl i32 %333, 6
  %335 = or i32 %332, %334
  %336 = trunc i32 %335 to i8
  %337 = load ptr, ptr %3, align 8, !tbaa !6
  %338 = getelementptr inbounds i8, ptr %337, i64 28
  store i8 %336, ptr %338, align 1, !tbaa !12
  %339 = load i32, ptr %14, align 4, !tbaa !15
  %340 = ashr i32 %339, 2
  %341 = trunc i32 %340 to i8
  %342 = load ptr, ptr %3, align 8, !tbaa !6
  %343 = getelementptr inbounds i8, ptr %342, i64 29
  store i8 %341, ptr %343, align 1, !tbaa !12
  %344 = load i32, ptr %14, align 4, !tbaa !15
  %345 = ashr i32 %344, 10
  %346 = trunc i32 %345 to i8
  %347 = load ptr, ptr %3, align 8, !tbaa !6
  %348 = getelementptr inbounds i8, ptr %347, i64 30
  store i8 %346, ptr %348, align 1, !tbaa !12
  %349 = load i32, ptr %14, align 4, !tbaa !15
  %350 = ashr i32 %349, 18
  %351 = trunc i32 %350 to i8
  %352 = load ptr, ptr %3, align 8, !tbaa !6
  %353 = getelementptr inbounds i8, ptr %352, i64 31
  store i8 %351, ptr %353, align 1, !tbaa !12
  call void @llvm.lifetime.end.p0(i64 4, ptr %15) #5
  call void @llvm.lifetime.end.p0(i64 4, ptr %14) #5
  call void @llvm.lifetime.end.p0(i64 4, ptr %13) #5
  call void @llvm.lifetime.end.p0(i64 4, ptr %12) #5
  call void @llvm.lifetime.end.p0(i64 4, ptr %11) #5
  call void @llvm.lifetime.end.p0(i64 4, ptr %10) #5
  call void @llvm.lifetime.end.p0(i64 4, ptr %9) #5
  call void @llvm.lifetime.end.p0(i64 4, ptr %8) #5
  call void @llvm.lifetime.end.p0(i64 4, ptr %7) #5
  call void @llvm.lifetime.end.p0(i64 4, ptr %6) #5
  call void @llvm.lifetime.end.p0(i64 4, ptr %5) #5
  ret void
}