; Function Attrs: mustprogress nofree norecurse nosync nounwind willreturn memory(argmem: readwrite) uwtable
define internal fastcc void @fe_tobytes(ptr noundef writeonly captures(none) initializes((0, 32)) %0, ptr noundef readonly captures(none) %1) unnamed_addr #2 {
  %3 = load i32, ptr %1, align 4, !tbaa !18
  %4 = getelementptr inbounds nuw i8, ptr %1, i64 4
  %5 = load i32, ptr %4, align 4, !tbaa !18
  %6 = getelementptr inbounds nuw i8, ptr %1, i64 8
  %7 = load i32, ptr %6, align 4, !tbaa !18
  %8 = getelementptr inbounds nuw i8, ptr %1, i64 12
  %9 = load i32, ptr %8, align 4, !tbaa !18
  %10 = getelementptr inbounds nuw i8, ptr %1, i64 16
  %11 = load i32, ptr %10, align 4, !tbaa !18
  %12 = getelementptr inbounds nuw i8, ptr %1, i64 20
  %13 = load i32, ptr %12, align 4, !tbaa !18
  %14 = getelementptr inbounds nuw i8, ptr %1, i64 24
  %15 = load i32, ptr %14, align 4, !tbaa !18
  %16 = getelementptr inbounds nuw i8, ptr %1, i64 28
  %17 = load i32, ptr %16, align 4, !tbaa !18
  %18 = getelementptr inbounds nuw i8, ptr %1, i64 32
  %19 = load i32, ptr %18, align 4, !tbaa !18
  %20 = getelementptr inbounds nuw i8, ptr %1, i64 36
  %21 = load i32, ptr %20, align 4, !tbaa !18
  %22 = mul nsw i32 %21, 19
  %23 = add nsw i32 %22, 16777216
  %24 = ashr i32 %23, 25
  %25 = add nsw i32 %24, %3
  %26 = ashr i32 %25, 26
  %27 = add nsw i32 %26, %5
  %28 = ashr i32 %27, 25
  %29 = add nsw i32 %28, %7
  %30 = ashr i32 %29, 26
  %31 = add nsw i32 %30, %9
  %32 = ashr i32 %31, 25
  %33 = add nsw i32 %32, %11
  %34 = ashr i32 %33, 26
  %35 = add nsw i32 %34, %13
  %36 = ashr i32 %35, 25
  %37 = add nsw i32 %36, %15
  %38 = ashr i32 %37, 26
  %39 = add nsw i32 %38, %17
  %40 = ashr i32 %39, 25
  %41 = add nsw i32 %40, %19
  %42 = ashr i32 %41, 26
  %43 = add nsw i32 %42, %21
  %44 = ashr i32 %43, 25
  %45 = mul nsw i32 %44, 19
  %46 = add nsw i32 %45, %3
  %47 = ashr i32 %46, 26
  %48 = add nsw i32 %47, %5
  %49 = ashr i32 %48, 25
  %50 = add nsw i32 %49, %7
  %51 = and i32 %48, 33554431
  %52 = ashr i32 %50, 26
  %53 = add nsw i32 %52, %9
  %54 = and i32 %50, 67108863
  %55 = ashr i32 %53, 25
  %56 = add nsw i32 %55, %11
  %57 = and i32 %53, 33554431
  %58 = ashr i32 %56, 26
  %59 = add nsw i32 %58, %13
  %60 = ashr i32 %59, 25
  %61 = add nsw i32 %60, %15
  %62 = ashr i32 %61, 26
  %63 = add nsw i32 %62, %17
  %64 = and i32 %61, 67108863
  %65 = ashr i32 %63, 25
  %66 = add nsw i32 %65, %19
  %67 = and i32 %63, 33554431
  %68 = ashr i32 %66, 26
  %69 = add nsw i32 %68, %21
  %70 = and i32 %66, 67108863
  %71 = and i32 %69, 33554431
  %72 = trunc i32 %46 to i8
  store i8 %72, ptr %0, align 1, !tbaa !6
  %73 = lshr i32 %46, 8
  %74 = trunc i32 %73 to i8
  %75 = getelementptr inbounds nuw i8, ptr %0, i64 1
  store i8 %74, ptr %75, align 1, !tbaa !6
  %76 = lshr i32 %46, 16
  %77 = trunc i32 %76 to i8
  %78 = getelementptr inbounds nuw i8, ptr %0, i64 2
  store i8 %77, ptr %78, align 1, !tbaa !6
  %79 = lshr i32 %46, 24
  %80 = and i32 %79, 3
  %81 = shl nuw nsw i32 %51, 2
  %82 = or disjoint i32 %81, %80
  %83 = trunc i32 %82 to i8
  %84 = getelementptr inbounds nuw i8, ptr %0, i64 3
  store i8 %83, ptr %84, align 1, !tbaa !6
  %85 = lshr i32 %48, 6
  %86 = trunc i32 %85 to i8
  %87 = getelementptr inbounds nuw i8, ptr %0, i64 4
  store i8 %86, ptr %87, align 1, !tbaa !6
  %88 = lshr i32 %48, 14
  %89 = trunc i32 %88 to i8
  %90 = getelementptr inbounds nuw i8, ptr %0, i64 5
  store i8 %89, ptr %90, align 1, !tbaa !6
  %91 = lshr i32 %51, 22
  %92 = shl nuw nsw i32 %54, 3
  %93 = or disjoint i32 %92, %91
  %94 = trunc i32 %93 to i8
  %95 = getelementptr inbounds nuw i8, ptr %0, i64 6
  store i8 %94, ptr %95, align 1, !tbaa !6
  %96 = lshr i32 %50, 5
  %97 = trunc i32 %96 to i8
  %98 = getelementptr inbounds nuw i8, ptr %0, i64 7
  store i8 %97, ptr %98, align 1, !tbaa !6
  %99 = lshr i32 %50, 13
  %100 = trunc i32 %99 to i8
  %101 = getelementptr inbounds nuw i8, ptr %0, i64 8
  store i8 %100, ptr %101, align 1, !tbaa !6
  %102 = lshr i32 %54, 21
  %103 = shl nuw nsw i32 %57, 5
  %104 = or disjoint i32 %103, %102
  %105 = trunc i32 %104 to i8
  %106 = getelementptr inbounds nuw i8, ptr %0, i64 9
  store i8 %105, ptr %106, align 1, !tbaa !6
  %107 = lshr i32 %53, 3
  %108 = trunc i32 %107 to i8
  %109 = getelementptr inbounds nuw i8, ptr %0, i64 10
  store i8 %108, ptr %109, align 1, !tbaa !6
  %110 = lshr i32 %53, 11
  %111 = trunc i32 %110 to i8
  %112 = getelementptr inbounds nuw i8, ptr %0, i64 11
  store i8 %111, ptr %112, align 1, !tbaa !6
  %113 = lshr i32 %57, 19
  %114 = shl i32 %56, 6
  %115 = or disjoint i32 %114, %113
  %116 = trunc i32 %115 to i8
  %117 = getelementptr inbounds nuw i8, ptr %0, i64 12
  store i8 %116, ptr %117, align 1, !tbaa !6
  %118 = lshr i32 %56, 2
  %119 = trunc i32 %118 to i8
  %120 = getelementptr inbounds nuw i8, ptr %0, i64 13
  store i8 %119, ptr %120, align 1, !tbaa !6
  %121 = lshr i32 %56, 10
  %122 = trunc i32 %121 to i8
  %123 = getelementptr inbounds nuw i8, ptr %0, i64 14
  store i8 %122, ptr %123, align 1, !tbaa !6
  %124 = lshr i32 %56, 18
  %125 = trunc i32 %124 to i8
  %126 = getelementptr inbounds nuw i8, ptr %0, i64 15
  store i8 %125, ptr %126, align 1, !tbaa !6
  %127 = trunc i32 %59 to i8
  %128 = getelementptr inbounds nuw i8, ptr %0, i64 16
  store i8 %127, ptr %128, align 1, !tbaa !6
  %129 = lshr i32 %59, 8
  %130 = trunc i32 %129 to i8
  %131 = getelementptr inbounds nuw i8, ptr %0, i64 17
  store i8 %130, ptr %131, align 1, !tbaa !6
  %132 = lshr i32 %59, 16
  %133 = trunc i32 %132 to i8
  %134 = getelementptr inbounds nuw i8, ptr %0, i64 18
  store i8 %133, ptr %134, align 1, !tbaa !6
  %135 = lshr i32 %59, 24
  %136 = and i32 %135, 1
  %137 = shl nuw nsw i32 %64, 1
  %138 = or disjoint i32 %137, %136
  %139 = trunc i32 %138 to i8
  %140 = getelementptr inbounds nuw i8, ptr %0, i64 19
  store i8 %139, ptr %140, align 1, !tbaa !6
  %141 = lshr i32 %61, 7
  %142 = trunc i32 %141 to i8
  %143 = getelementptr inbounds nuw i8, ptr %0, i64 20
  store i8 %142, ptr %143, align 1, !tbaa !6
  %144 = lshr i32 %61, 15
  %145 = trunc i32 %144 to i8
  %146 = getelementptr inbounds nuw i8, ptr %0, i64 21
  store i8 %145, ptr %146, align 1, !tbaa !6
  %147 = lshr i32 %64, 23
  %148 = shl nuw nsw i32 %67, 3
  %149 = or disjoint i32 %148, %147
  %150 = trunc i32 %149 to i8
  %151 = getelementptr inbounds nuw i8, ptr %0, i64 22
  store i8 %150, ptr %151, align 1, !tbaa !6
  %152 = lshr i32 %63, 5
  %153 = trunc i32 %152 to i8
  %154 = getelementptr inbounds nuw i8, ptr %0, i64 23
  store i8 %153, ptr %154, align 1, !tbaa !6
  %155 = lshr i32 %63, 13
  %156 = trunc i32 %155 to i8
  %157 = getelementptr inbounds nuw i8, ptr %0, i64 24
  store i8 %156, ptr %157, align 1, !tbaa !6
  %158 = lshr i32 %67, 21
  %159 = shl nuw nsw i32 %70, 4
  %160 = or disjoint i32 %159, %158
  %161 = trunc i32 %160 to i8
  %162 = getelementptr inbounds nuw i8, ptr %0, i64 25
  store i8 %161, ptr %162, align 1, !tbaa !6
  %163 = lshr i32 %66, 4
  %164 = trunc i32 %163 to i8
  %165 = getelementptr inbounds nuw i8, ptr %0, i64 26
  store i8 %164, ptr %165, align 1, !tbaa !6
  %166 = lshr i32 %66, 12
  %167 = trunc i32 %166 to i8
  %168 = getelementptr inbounds nuw i8, ptr %0, i64 27
  store i8 %167, ptr %168, align 1, !tbaa !6
  %169 = lshr i32 %70, 20
  %170 = shl nuw nsw i32 %71, 6
  %171 = or disjoint i32 %170, %169
  %172 = trunc i32 %171 to i8
  %173 = getelementptr inbounds nuw i8, ptr %0, i64 28
  store i8 %172, ptr %173, align 1, !tbaa !6
  %174 = lshr i32 %69, 2
  %175 = trunc i32 %174 to i8
  %176 = getelementptr inbounds nuw i8, ptr %0, i64 29
  store i8 %175, ptr %176, align 1, !tbaa !6
  %177 = lshr i32 %69, 10
  %178 = trunc i32 %177 to i8
  %179 = getelementptr inbounds nuw i8, ptr %0, i64 30
  store i8 %178, ptr %179, align 1, !tbaa !6
  %180 = lshr i32 %71, 18
  %181 = trunc nuw nsw i32 %180 to i8
  %182 = getelementptr inbounds nuw i8, ptr %0, i64 31
  store i8 %181, ptr %182, align 1, !tbaa !6
  ret void
}